; Function Attrs: nounwind uwtable
define ptr @l_List_foldl___at_Lean_Parser_evalParserConstUnsafe___spec__1(ptr noundef %0, ptr noundef %1) local_unnamed_addr #1 {
  br label %lean_dec.exit

lean_dec.exit:                                    ; preds = %lean_dec.exit.backedge, %2
  %.014 = phi ptr [ %1, %2 ], [ %25, %lean_dec.exit.backedge ]
  %.0 = phi ptr [ %0, %2 ], [ %.0.be, %lean_dec.exit.backedge ]
  %3 = ptrtoint ptr %.014 to i64
  %4 = and i64 %3, 1
  %.not.i20 = icmp eq i64 %4, 0
  br i1 %.not.i20, label %8, label %5

5:                                                ; preds = %lean_dec.exit
  %6 = lshr i64 %3, 1
  %7 = trunc i64 %6 to i32
  br label %lean_obj_tag.exit

8:                                                ; preds = %lean_dec.exit
  %9 = getelementptr i8, ptr %.014, i64 4
  %.val.i = load i32, ptr %9, align 4
  %10 = lshr i32 %.val.i, 24
  br label %lean_obj_tag.exit

lean_obj_tag.exit:                                ; preds = %5, %8
  %.0.i = phi i32 [ %7, %5 ], [ %10, %8 ]
  %11 = icmp eq i32 %.0.i, 0
  br i1 %11, label %12, label %13

12:                                               ; preds = %lean_obj_tag.exit
  ret ptr %.0

13:                                               ; preds = %lean_obj_tag.exit
  %14 = getelementptr inbounds nuw i8, ptr %.014, i64 8
  %15 = load ptr, ptr %14, align 8, !tbaa !9
  %16 = ptrtoint ptr %15 to i64
  %17 = and i64 %16, 1
  %.not = icmp eq i64 %17, 0
  br i1 %.not, label %18, label %lean_inc.exit16

18:                                               ; preds = %13
  %.val.i21 = load i32, ptr %15, align 4, !tbaa !4
  %19 = icmp sgt i32 %.val.i21, 0
  br i1 %19, label %20, label %22, !prof !11

20:                                               ; preds = %18
  %21 = add nuw i32 %.val.i21, 1
  store i32 %21, ptr %15, align 4, !tbaa !4
  br label %lean_inc.exit16

22:                                               ; preds = %18
  %.not.i22 = icmp eq i32 %.val.i21, 0
  br i1 %.not.i22, label %lean_inc.exit16, label %23

23:                                               ; preds = %22
  tail call void @lean_inc_ref_cold(ptr noundef nonnull %15) #6
  br label %lean_inc.exit16

lean_inc.exit16:                                  ; preds = %23, %22, %20, %13
  %24 = getelementptr inbounds nuw i8, ptr %.014, i64 16
  %25 = load ptr, ptr %24, align 8, !tbaa !9
  %26 = ptrtoint ptr %25 to i64
  %27 = and i64 %26, 1
  %.not29 = icmp eq i64 %27, 0
  br i1 %.not29, label %28, label %lean_inc.exit15

28:                                               ; preds = %lean_inc.exit16
  %.val.i23 = load i32, ptr %25, align 4, !tbaa !4
  %29 = icmp sgt i32 %.val.i23, 0
  br i1 %29, label %30, label %32, !prof !11

30:                                               ; preds = %28
  %31 = add nuw i32 %.val.i23, 1
  store i32 %31, ptr %25, align 4, !tbaa !4
  br label %lean_inc.exit15

32:                                               ; preds = %28
  %.not.i24 = icmp eq i32 %.val.i23, 0
  br i1 %.not.i24, label %lean_inc.exit15, label %33

33:                                               ; preds = %32
  tail call void @lean_inc_ref_cold(ptr noundef nonnull %25) #6
  br label %lean_inc.exit15

lean_inc.exit15:                                  ; preds = %33, %32, %30, %lean_inc.exit16
  br i1 %.not.i20, label %34, label %lean_dec.exit17

34:                                               ; preds = %lean_inc.exit15
  %35 = load i32, ptr %.014, align 4, !tbaa !4
  %36 = icmp sgt i32 %35, 1
  br i1 %36, label %37, label %39, !prof !11

37:                                               ; preds = %34
  %38 = add nsw i32 %35, -1
  store i32 %38, ptr %.014, align 4, !tbaa !4
  br label %lean_dec.exit17

39:                                               ; preds = %34
  %.not.i = icmp eq i32 %35, 0
  br i1 %.not.i, label %lean_dec.exit17, label %40

40:                                               ; preds = %39
  tail call void @lean_dec_ref_cold(ptr noundef nonnull %.014) #6
  br label %lean_dec.exit17

lean_dec.exit17:                                  ; preds = %40, %39, %37, %lean_inc.exit15
  br i1 %.not, label %41, label %lean_inc.exit

41:                                               ; preds = %lean_dec.exit17
  %.val.i26 = load i32, ptr %15, align 4, !tbaa !4
  %42 = icmp sgt i32 %.val.i26, 0
  br i1 %42, label %43, label %45, !prof !11

43:                                               ; preds = %41
  %44 = add nuw i32 %.val.i26, 1
  store i32 %44, ptr %15, align 4, !tbaa !4
  br label %48

45:                                               ; preds = %41
  %.not.i27 = icmp eq i32 %.val.i26, 0
  br i1 %.not.i27, label %48, label %46

46:                                               ; preds = %45
  tail call void @lean_inc_ref_cold(ptr noundef nonnull %15) #6
  br label %48

lean_inc.exit:                                    ; preds = %lean_dec.exit17
  %47 = tail call ptr @l_Lean_Data_Trie_insert___rarg(ptr noundef %.0, ptr noundef %15, ptr noundef %15) #6
  br label %lean_dec.exit.backedge

48:                                               ; preds = %46, %45, %43
  %49 = tail call ptr @l_Lean_Data_Trie_insert___rarg(ptr noundef %.0, ptr noundef nonnull %15, ptr noundef nonnull %15) #6
  %50 = load i32, ptr %15, align 4, !tbaa !4
  %51 = icmp sgt i32 %50, 1
  br i1 %51, label %52, label %54, !prof !11

52:                                               ; preds = %48
  %53 = add nsw i32 %50, -1
  store i32 %53, ptr %15, align 4, !tbaa !4
  br label %lean_dec.exit.backedge

54:                                               ; preds = %48
  %.not.i18 = icmp eq i32 %50, 0
  br i1 %.not.i18, label %lean_dec.exit.backedge, label %55

55:                                               ; preds = %54
  tail call void @lean_dec_ref_cold(ptr noundef nonnull %15) #6
  br label %lean_dec.exit.backedge

lean_dec.exit.backedge:                           ; preds = %55, %54, %52, %lean_inc.exit
  %.0.be = phi ptr [ %49, %55 ], [ %49, %54 ], [ %49, %52 ], [ %47, %lean_inc.exit ]
  br label %lean_dec.exit
}